; Function Attrs: nounwind uwtable
define range(i32 0, 2) i32 @ossl_quic_rcidm_add_from_ncid(ptr noundef captures(none) %0, ptr noundef readonly captures(none) %1) local_unnamed_addr #0 {
  %3 = load i64, ptr %1, align 8, !tbaa !34
  %4 = getelementptr inbounds nuw i8, ptr %1, i64 16
  %5 = tail call fastcc ptr @rcidm_create_rcid(ptr noundef %0, i64 noundef %3, ptr noundef nonnull %4, i32 noundef 2)
  %6 = icmp eq ptr %5, null
  br i1 %6, label %117, label %7

7:                                                ; preds = %2
  %8 = getelementptr inbounds nuw i8, ptr %1, i64 8
  %9 = load i64, ptr %8, align 8, !tbaa !37
  %10 = getelementptr inbounds nuw i8, ptr %0, i64 80
  %11 = load i64, ptr %10, align 8, !tbaa !29
  %.not.i = icmp ugt i64 %9, %11
  br i1 %.not.i, label %12, label %rcidm_handle_retire_prior_to.exit

12:                                               ; preds = %7
  %13 = getelementptr inbounds nuw i8, ptr %0, i64 96
  %14 = load ptr, ptr %13, align 8, !tbaa !19
  %.not15.i = icmp eq ptr %14, null
  br i1 %.not15.i, label %rcidm_transition_rcid.exit.i, label %15

15:                                               ; preds = %12
  %16 = getelementptr inbounds nuw i8, ptr %14, i64 40
  %17 = load i64, ptr %16, align 8, !tbaa !16
  %18 = icmp ult i64 %17, %9
  br i1 %18, label %19, label %rcidm_transition_rcid.exit.i

19:                                               ; preds = %15
  %20 = getelementptr inbounds nuw i8, ptr %14, i64 56
  %21 = load i8, ptr %20, align 8
  %22 = and i8 %21, 3
  switch i8 %22, label %23 [
    i8 2, label %rcidm_transition_rcid.exit.i
    i8 0, label %.thread30.i.i
  ]

23:                                               ; preds = %19
  %24 = and i8 %21, -4
  %25 = or disjoint i8 %24, 2
  store i8 %25, ptr %20, align 8
  %26 = icmp eq i8 %22, 1
  br i1 %26, label %35, label %.thread31.i.i

.thread30.i.i:                                    ; preds = %19
  %27 = getelementptr inbounds nuw i8, ptr %0, i64 88
  %28 = load ptr, ptr %27, align 8, !tbaa !3
  %29 = getelementptr inbounds nuw i8, ptr %14, i64 48
  %30 = load i64, ptr %29, align 8, !tbaa !30
  %31 = tail call ptr @ossl_pqueue_remove(ptr noundef %28, i64 noundef %30) #9
  store i64 -1, ptr %29, align 8, !tbaa !30
  %32 = load i8, ptr %20, align 8
  %33 = and i8 %32, -4
  %34 = or disjoint i8 %33, 2
  store i8 %34, ptr %20, align 8
  br label %.thread31.i.i

35:                                               ; preds = %23
  store ptr null, ptr %13, align 8, !tbaa !19
  br label %.thread31.i.i

.thread31.i.i:                                    ; preds = %35, %.thread30.i.i, %23
  %36 = getelementptr inbounds nuw i8, ptr %0, i64 104
  %37 = getelementptr inbounds nuw i8, ptr %0, i64 112
  %38 = load ptr, ptr %37, align 8, !tbaa !31
  %.not.i.i.i = icmp eq ptr %38, null
  br i1 %.not.i.i.i, label %40, label %39

39:                                               ; preds = %.thread31.i.i
  store ptr %14, ptr %38, align 8, !tbaa !24
  br label %40

40:                                               ; preds = %39, %.thread31.i.i
  %41 = getelementptr inbounds nuw i8, ptr %14, i64 8
  store ptr %38, ptr %41, align 8, !tbaa !32
  store ptr null, ptr %14, align 8, !tbaa !24
  store ptr %14, ptr %37, align 8, !tbaa !31
  %42 = load ptr, ptr %36, align 8, !tbaa !23
  %43 = icmp eq ptr %42, null
  br i1 %43, label %44, label %ossl_list_retiring_insert_tail.exit.i.i

44:                                               ; preds = %40
  store ptr %14, ptr %36, align 8, !tbaa !23
  br label %ossl_list_retiring_insert_tail.exit.i.i

ossl_list_retiring_insert_tail.exit.i.i:          ; preds = %44, %40
  %45 = getelementptr inbounds nuw i8, ptr %0, i64 120
  %46 = load i64, ptr %45, align 8, !tbaa !33
  %47 = add i64 %46, 1
  store i64 %47, ptr %45, align 8, !tbaa !33
  %48 = getelementptr inbounds nuw i8, ptr %0, i64 128
  %49 = load i64, ptr %48, align 8, !tbaa !28
  %50 = add i64 %49, 1
  store i64 %50, ptr %48, align 8, !tbaa !28
  br label %rcidm_transition_rcid.exit.i

rcidm_transition_rcid.exit.i:                     ; preds = %ossl_list_retiring_insert_tail.exit.i.i, %19, %15, %12
  %51 = getelementptr inbounds nuw i8, ptr %0, i64 88
  %52 = load ptr, ptr %51, align 8, !tbaa !3
  %53 = tail call ptr @ossl_pqueue_peek(ptr noundef %52) #9
  %.not1622.i = icmp eq ptr %53, null
  br i1 %.not1622.i, label %.critedge.i, label %.lr.ph.i

.lr.ph.i:                                         ; preds = %rcidm_transition_rcid.exit.i
  %54 = getelementptr inbounds nuw i8, ptr %0, i64 104
  %55 = getelementptr inbounds nuw i8, ptr %0, i64 112
  %56 = getelementptr inbounds nuw i8, ptr %0, i64 120
  %57 = getelementptr inbounds nuw i8, ptr %0, i64 128
  br label %58

58:                                               ; preds = %rcidm_transition_rcid.exit21.i, %.lr.ph.i
  %59 = phi ptr [ %53, %.lr.ph.i ], [ %91, %rcidm_transition_rcid.exit21.i ]
  %60 = getelementptr inbounds nuw i8, ptr %59, i64 40
  %61 = load i64, ptr %60, align 8, !tbaa !16
  %62 = icmp ult i64 %61, %9
  br i1 %62, label %63, label %.critedge.i

63:                                               ; preds = %58
  %64 = getelementptr inbounds nuw i8, ptr %59, i64 56
  %65 = load i8, ptr %64, align 8
  %66 = and i8 %65, 3
  switch i8 %66, label %67 [
    i8 2, label %rcidm_transition_rcid.exit21.i
    i8 0, label %.thread30.i20.i
  ]

67:                                               ; preds = %63
  %68 = and i8 %65, -4
  %69 = or disjoint i8 %68, 2
  store i8 %69, ptr %64, align 8
  %70 = icmp eq i8 %66, 1
  br i1 %70, label %78, label %.thread31.i17.i

.thread30.i20.i:                                  ; preds = %63
  %71 = load ptr, ptr %51, align 8, !tbaa !3
  %72 = getelementptr inbounds nuw i8, ptr %59, i64 48
  %73 = load i64, ptr %72, align 8, !tbaa !30
  %74 = tail call ptr @ossl_pqueue_remove(ptr noundef %71, i64 noundef %73) #9
  store i64 -1, ptr %72, align 8, !tbaa !30
  %75 = load i8, ptr %64, align 8
  %76 = and i8 %75, -4
  %77 = or disjoint i8 %76, 2
  store i8 %77, ptr %64, align 8
  br label %.thread31.i17.i

78:                                               ; preds = %67
  store ptr null, ptr %13, align 8, !tbaa !19
  br label %.thread31.i17.i

.thread31.i17.i:                                  ; preds = %78, %.thread30.i20.i, %67
  %79 = load ptr, ptr %55, align 8, !tbaa !31
  %.not.i.i18.i = icmp eq ptr %79, null
  br i1 %.not.i.i18.i, label %81, label %80

80:                                               ; preds = %.thread31.i17.i
  store ptr %59, ptr %79, align 8, !tbaa !24
  br label %81

81:                                               ; preds = %80, %.thread31.i17.i
  %82 = getelementptr inbounds nuw i8, ptr %59, i64 8
  store ptr %79, ptr %82, align 8, !tbaa !32
  store ptr null, ptr %59, align 8, !tbaa !24
  store ptr %59, ptr %55, align 8, !tbaa !31
  %83 = load ptr, ptr %54, align 8, !tbaa !23
  %84 = icmp eq ptr %83, null
  br i1 %84, label %85, label %ossl_list_retiring_insert_tail.exit.i19.i

85:                                               ; preds = %81
  store ptr %59, ptr %54, align 8, !tbaa !23
  br label %ossl_list_retiring_insert_tail.exit.i19.i

ossl_list_retiring_insert_tail.exit.i19.i:        ; preds = %85, %81
  %86 = load i64, ptr %56, align 8, !tbaa !33
  %87 = add i64 %86, 1
  store i64 %87, ptr %56, align 8, !tbaa !33
  %88 = load i64, ptr %57, align 8, !tbaa !28
  %89 = add i64 %88, 1
  store i64 %89, ptr %57, align 8, !tbaa !28
  br label %rcidm_transition_rcid.exit21.i

rcidm_transition_rcid.exit21.i:                   ; preds = %ossl_list_retiring_insert_tail.exit.i19.i, %63
  %90 = load ptr, ptr %51, align 8, !tbaa !3
  %91 = tail call ptr @ossl_pqueue_peek(ptr noundef %90) #9
  %.not16.i = icmp eq ptr %91, null
  br i1 %.not16.i, label %.critedge.i, label %58, !llvm.loop !38

.critedge.i:                                      ; preds = %rcidm_transition_rcid.exit21.i, %58, %rcidm_transition_rcid.exit.i
  store i64 %9, ptr %10, align 8, !tbaa !29
  br label %rcidm_handle_retire_prior_to.exit

rcidm_handle_retire_prior_to.exit:                ; preds = %7, %.critedge.i
  %92 = getelementptr inbounds nuw i8, ptr %0, i64 136
  %93 = load i8, ptr %92, align 8
  %94 = and i8 %93, 4
  %.not.i.i = icmp eq i8 %94, 0
  br i1 %.not.i.i, label %rcidm_tick.exit, label %95

95:                                               ; preds = %rcidm_handle_retire_prior_to.exit
  %96 = getelementptr inbounds nuw i8, ptr %0, i64 72
  %97 = load i64, ptr %96, align 8, !tbaa !26
  %98 = icmp eq i64 %97, 0
  br i1 %98, label %rcidm_should_roll.exit.thread.i, label %99

99:                                               ; preds = %95
  %100 = getelementptr inbounds nuw i8, ptr %0, i64 64
  %101 = load i64, ptr %100, align 8, !tbaa !27
  %102 = icmp ult i64 %101, 10000
  %103 = and i8 %93, 64
  %.not.i7 = icmp eq i8 %103, 0
  %or.cond.i = and i1 %.not.i7, %102
  br i1 %or.cond.i, label %rcidm_tick.exit, label %rcidm_should_roll.exit.thread.i

rcidm_should_roll.exit.thread.i:                  ; preds = %99, %95
  %104 = getelementptr inbounds nuw i8, ptr %0, i64 88
  %105 = load ptr, ptr %104, align 8, !tbaa !3
  %106 = tail call ptr @ossl_pqueue_peek(ptr noundef %105) #9
  %107 = icmp eq ptr %106, null
  br i1 %107, label %rcidm_tick.exit, label %108

108:                                              ; preds = %rcidm_should_roll.exit.thread.i
  tail call fastcc void @rcidm_transition_rcid(ptr noundef nonnull %0, ptr noundef %106, i32 noundef 1)
  %109 = load i64, ptr %96, align 8, !tbaa !26
  %110 = add i64 %109, 1
  store i64 %110, ptr %96, align 8, !tbaa !26
  %111 = load i8, ptr %92, align 8
  %112 = and i8 %111, -65
  store i8 %112, ptr %92, align 8
  %113 = getelementptr inbounds nuw i8, ptr %0, i64 64
  %114 = load i64, ptr %113, align 8, !tbaa !27
  %115 = icmp ugt i64 %114, 9999
  %116 = urem i64 %114, 10000
  %storemerge.i.i = select i1 %115, i64 %116, i64 0
  store i64 %storemerge.i.i, ptr %113, align 8, !tbaa !27
  br label %rcidm_tick.exit

rcidm_tick.exit:                                  ; preds = %rcidm_handle_retire_prior_to.exit, %99, %rcidm_should_roll.exit.thread.i, %108
  tail call fastcc void @rcidm_update(ptr noundef nonnull %0)
  br label %117

117:                                              ; preds = %2, %rcidm_tick.exit
  %.0 = phi i32 [ 1, %rcidm_tick.exit ], [ 0, %2 ]
  ret i32 %.0
}